target datalayout = "e-m:e-p270:32:32-p271:32:32-p272:64:64-i64:64-i128:128-f80:128-n8:16:32:64-S128"
target triple = "x86_64-unknown-linux-gnu"

%"class.std::__cxx11::basic_string" = type { %"struct.std::__cxx11::basic_string<char>::_Alloc_hider", i64, %union.anon }
%"struct.std::__cxx11::basic_string<char>::_Alloc_hider" = type { ptr }
%union.anon = type { i64, [8 x i8] }
%"class.folly::IOBuf" = type { i64, ptr, i64, ptr, ptr, ptr, i64 }

@_ZZN8proxygen10BinPrinter5printB5cxx11EPKN5folly5IOBufEE12bytesPerLine = internal global i8 8, align 1

; Function Attrs: mustprogress nounwind uwtable
define linkonce_odr noundef i64 @_ZNK5folly5IOBuf6lengthEv(ptr noundef nonnull align 8 dereferenceable(56) %this) #2 comdat align 2 {
entry:
  %this.addr = alloca ptr, align 8
  store ptr %this, ptr %this.addr, align 8
  %this1 = load ptr, ptr %this.addr, align 8
  %length_ = getelementptr inbounds %"class.folly::IOBuf", ptr %this1, i32 0, i32 0
  %0 = load i64, ptr %length_, align 8
  ret i64 %0
}

; Function Attrs: mustprogress nounwind uwtable
define linkonce_odr noundef ptr @_ZNK5folly5IOBuf4dataEv(ptr noundef nonnull align 8 dereferenceable(56) %this) #2 comdat align 2 {
entry:
  %this.addr = alloca ptr, align 8
  store ptr %this, ptr %this.addr, align 8
  %this1 = load ptr, ptr %this.addr, align 8
  %data_ = getelementptr inbounds %"class.folly::IOBuf", ptr %this1, i32 0, i32 1
  %0 = load ptr, ptr %data_, align 8
  ret ptr %0
}

; Function Attrs: mustprogress uwtable
define void @_ZN8proxygen10BinPrinter5printB5cxx11EPKN5folly5IOBufE(ptr noalias sret(%"class.std::__cxx11::basic_string") align 8 %agg.result, ptr noundef nonnull align 8 dereferenceable(8) %this, ptr noundef %buf) unnamed_addr #1 align 2 personality ptr @__gxx_personality_v0 {
entry:
  %result.ptr = alloca ptr, align 8
  %this.addr = alloca ptr, align 8
  %buf.addr = alloca ptr, align 8
  %nrvo = alloca i1, align 1
  %data = alloca ptr, align 8
  %exn.slot = alloca ptr, align 8
  %ehselector.slot = alloca i32, align 4
  %i = alloca i64, align 8
  %b = alloca i32, align 4
  store ptr %agg.result, ptr %result.ptr, align 8
  store ptr %this, ptr %this.addr, align 8
  store ptr %buf, ptr %buf.addr, align 8
  store i1 false, ptr %nrvo, align 1
  call void @_ZNSt7__cxx1112basic_stringIcSt11char_traitsIcESaIcEEC1Ev(ptr noundef nonnull align 8 dereferenceable(32) %agg.result) #3
  %0 = load ptr, ptr %buf.addr, align 8
  %call = invoke noundef ptr @_ZNK5folly5IOBuf4dataEv(ptr noundef nonnull align 8 dereferenceable(56) %0)
          to label %invoke.cont unwind label %lpad

invoke.cont:                                      ; preds = %entry
  store ptr %call, ptr %data, align 8
  store i64 0, ptr %i, align 8
  br label %for.cond

for.cond:                                         ; preds = %for.inc27, %invoke.cont
  %1 = load i64, ptr %i, align 8
  %2 = load ptr, ptr %buf.addr, align 8
  %call3 = invoke noundef i64 @_ZNK5folly5IOBuf6lengthEv(ptr noundef nonnull align 8 dereferenceable(56) %2)
          to label %invoke.cont2 unwind label %lpad

invoke.cont2:                                     ; preds = %for.cond
  %cmp = icmp ult i64 %1, %call3
  br i1 %cmp, label %for.body, label %for.end28

for.body:                                         ; preds = %invoke.cont2
  store i32 7, ptr %b, align 4
  br label %for.cond4

for.cond4:                                        ; preds = %for.inc, %for.body
  %3 = load i32, ptr %b, align 4
  %cmp5 = icmp sge i32 %3, 0
  br i1 %cmp5, label %for.body6, label %for.end

for.body6:                                        ; preds = %for.cond4
  %4 = load ptr, ptr %data, align 8
  %5 = load i64, ptr %i, align 8
  %arrayidx = getelementptr inbounds i8, ptr %4, i64 %5
  %6 = load i8, ptr %arrayidx, align 1
  %conv = zext i8 %6 to i32
  %7 = load i32, ptr %b, align 4
  %shl = shl i32 1, %7
  %and = and i32 %conv, %shl
  %tobool = icmp ne i32 %and, 0
  %cond = select i1 %tobool, i8 49, i8 48
  %call8 = invoke noundef nonnull align 8 dereferenceable(32) ptr @_ZNSt7__cxx1112basic_stringIcSt11char_traitsIcESaIcEEpLEc(ptr noundef nonnull align 8 dereferenceable(32) %agg.result, i8 noundef signext %cond)
          to label %invoke.cont7 unwind label %lpad

invoke.cont7:                                     ; preds = %for.body6
  br label %for.inc

for.inc:                                          ; preds = %invoke.cont7
  %8 = load i32, ptr %b, align 4
  %dec = add nsw i32 %8, -1
  store i32 %dec, ptr %b, align 4
  br label %for.cond4, !llvm.loop !6

lpad:                                             ; preds = %for.end28, %if.else, %if.then, %cond.end, %for.end, %for.body6, %for.cond, %entry
  %9 = landingpad { ptr, i32 }
          cleanup
  %10 = extractvalue { ptr, i32 } %9, 0
  store ptr %10, ptr %exn.slot, align 8
  %11 = extractvalue { ptr, i32 } %9, 1
  store i32 %11, ptr %ehselector.slot, align 4
  call void @_ZNSt7__cxx1112basic_stringIcSt11char_traitsIcESaIcEED1Ev(ptr noundef nonnull align 8 dereferenceable(32) %agg.result) #3
  br label %eh.resume

for.end:                                          ; preds = %for.cond4
  %call10 = invoke noundef nonnull align 8 dereferenceable(32) ptr @_ZNSt7__cxx1112basic_stringIcSt11char_traitsIcESaIcEEpLEc(ptr noundef nonnull align 8 dereferenceable(32) %agg.result, i8 noundef signext 32)
          to label %invoke.cont9 unwind label %lpad

invoke.cont9:                                     ; preds = %for.end
  %12 = load ptr, ptr %data, align 8
  %13 = load i64, ptr %i, align 8
  %arrayidx11 = getelementptr inbounds i8, ptr %12, i64 %13
  %14 = load i8, ptr %arrayidx11, align 1
  %conv12 = zext i8 %14 to i32
  %call13 = call i32 @isprint(i32 noundef %conv12) #19
  %tobool14 = icmp ne i32 %call13, 0
  br i1 %tobool14, label %cond.true, label %cond.false

cond.true:                                        ; preds = %invoke.cont9
  %15 = load ptr, ptr %data, align 8
  %16 = load i64, ptr %i, align 8
  %arrayidx15 = getelementptr inbounds i8, ptr %15, i64 %16
  %17 = load i8, ptr %arrayidx15, align 1
  %conv16 = zext i8 %17 to i32
  br label %cond.end

cond.false:                                       ; preds = %invoke.cont9
  br label %cond.end

cond.end:                                         ; preds = %cond.false, %cond.true
  %cond17 = phi i32 [ %conv16, %cond.true ], [ 32, %cond.false ]
  %conv18 = trunc i32 %cond17 to i8
  %call20 = invoke noundef nonnull align 8 dereferenceable(32) ptr @_ZNSt7__cxx1112basic_stringIcSt11char_traitsIcESaIcEEpLEc(ptr noundef nonnull align 8 dereferenceable(32) %agg.result, i8 noundef signext %conv18)
          to label %invoke.cont19 unwind label %lpad

invoke.cont19:                                    ; preds = %cond.end
  %18 = load i64, ptr %i, align 8
  %add = add i64 %18, 1
  %19 = load i8, ptr @_ZZN8proxygen10BinPrinter5printB5cxx11EPKN5folly5IOBufEE12bytesPerLine, align 1
  %conv21 = zext i8 %19 to i64
  %rem = urem i64 %add, %conv21
  %cmp22 = icmp eq i64 %rem, 0
  br i1 %cmp22, label %if.then, label %if.else

if.then:                                          ; preds = %invoke.cont19
  %call24 = invoke noundef nonnull align 8 dereferenceable(32) ptr @_ZNSt7__cxx1112basic_stringIcSt11char_traitsIcESaIcEEpLEc(ptr noundef nonnull align 8 dereferenceable(32) %agg.result, i8 noundef signext 10)
          to label %invoke.cont23 unwind label %lpad

invoke.cont23:                                    ; preds = %if.then
  br label %if.end

if.else:                                          ; preds = %invoke.cont19
  %call26 = invoke noundef nonnull align 8 dereferenceable(32) ptr @_ZNSt7__cxx1112basic_stringIcSt11char_traitsIcESaIcEEpLEc(ptr noundef nonnull align 8 dereferenceable(32) %agg.result, i8 noundef signext 32)
          to label %invoke.cont25 unwind label %lpad

invoke.cont25:                                    ; preds = %if.else
  br label %if.end

if.end:                                           ; preds = %invoke.cont25, %invoke.cont23
  br label %for.inc27

for.inc27:                                        ; preds = %if.end
  %20 = load i64, ptr %i, align 8
  %inc = add i64 %20, 1
  store i64 %inc, ptr %i, align 8
  br label %for.cond, !llvm.loop !7

for.end28:                                        ; preds = %invoke.cont2
  %call30 = invoke noundef nonnull align 8 dereferenceable(32) ptr @_ZNSt7__cxx1112basic_stringIcSt11char_traitsIcESaIcEEpLEc(ptr noundef nonnull align 8 dereferenceable(32) %agg.result, i8 noundef signext 10)
          to label %invoke.cont29 unwind label %lpad

invoke.cont29:                                    ; preds = %for.end28
  store i1 true, ptr %nrvo, align 1
  %nrvo.val = load i1, ptr %nrvo, align 1
  br i1 %nrvo.val, label %nrvo.skipdtor, label %nrvo.unused

nrvo.unused:                                      ; preds = %invoke.cont29
  call void @_ZNSt7__cxx1112basic_stringIcSt11char_traitsIcESaIcEED1Ev(ptr noundef nonnull align 8 dereferenceable(32) %agg.result) #3
  br label %nrvo.skipdtor

nrvo.skipdtor:                                    ; preds = %nrvo.unused, %invoke.cont29
  ret void

eh.resume:                                        ; preds = %lpad
  %exn = load ptr, ptr %exn.slot, align 8
  %sel = load i32, ptr %ehselector.slot, align 4
  %lpad.val = insertvalue { ptr, i32 } poison, ptr %exn, 0
  %lpad.val31 = insertvalue { ptr, i32 } %lpad.val, i32 %sel, 1
  resume { ptr, i32 } %lpad.val31
}