; Function Attrs: mustprogress uwtable
define void @_ZN8proxygen10BinPrinter5printB5cxx11EPKN5folly5IOBufE(ptr noalias nonnull sret(%"class.std::__cxx11::basic_string") align 8 %agg.result, ptr nocapture nonnull readnone align 8 %this, ptr nocapture noundef readonly %buf) unnamed_addr #3 align 2 personality ptr @__gxx_personality_v0 {
entry:
  tail call void @_ZNSt7__cxx1112basic_stringIcSt11char_traitsIcESaIcEEC1Ev(ptr noundef nonnull align 8 dereferenceable(32) %agg.result) #20
  %data_.i = getelementptr inbounds i8, ptr %buf, i64 8
  %0 = load ptr, ptr %data_.i, align 8
  %1 = load i64, ptr %buf, align 8
  %cmp17.not = icmp eq i64 %1, 0
  br i1 %cmp17.not, label %for.end28, label %for.cond4.preheader

for.cond4.preheader:                              ; preds = %entry, %for.inc27
  %i.018 = phi i64 [ %add, %for.inc27 ], [ 0, %entry ]
  %arrayidx = getelementptr inbounds i8, ptr %0, i64 %i.018
  br label %for.body6

for.body6:                                        ; preds = %for.cond4.preheader, %for.inc
  %b.016 = phi i32 [ 7, %for.cond4.preheader ], [ %dec, %for.inc ]
  %2 = load i8, ptr %arrayidx, align 1
  %conv = zext i8 %2 to i32
  %shl = shl nuw i32 1, %b.016
  %and = and i32 %shl, %conv
  %tobool.not = icmp eq i32 %and, 0
  %cond = select i1 %tobool.not, i8 48, i8 49
  %call8 = invoke noundef nonnull align 8 dereferenceable(32) ptr @_ZNSt7__cxx1112basic_stringIcSt11char_traitsIcESaIcEEpLEc(ptr noundef nonnull align 8 dereferenceable(32) %agg.result, i8 noundef signext %cond)
          to label %for.inc unwind label %lpad.loopexit

for.inc:                                          ; preds = %for.body6
  %dec = add nsw i32 %b.016, -1
  %cmp5.not = icmp eq i32 %b.016, 0
  br i1 %cmp5.not, label %for.end, label %for.body6, !llvm.loop !12

lpad.loopexit:                                    ; preds = %for.body6
  %lpad.loopexit11 = landingpad { ptr, i32 }
          cleanup
  br label %lpad

lpad.loopexit.split-lp.loopexit:                  ; preds = %invoke.cont19, %invoke.cont9, %for.end
  %lpad.loopexit13 = landingpad { ptr, i32 }
          cleanup
  br label %lpad

lpad.loopexit.split-lp.loopexit.split-lp:         ; preds = %for.end28
  %lpad.loopexit.split-lp14 = landingpad { ptr, i32 }
          cleanup
  br label %lpad

lpad:                                             ; preds = %lpad.loopexit.split-lp.loopexit, %lpad.loopexit.split-lp.loopexit.split-lp, %lpad.loopexit
  %lpad.phi = phi { ptr, i32 } [ %lpad.loopexit11, %lpad.loopexit ], [ %lpad.loopexit13, %lpad.loopexit.split-lp.loopexit ], [ %lpad.loopexit.split-lp14, %lpad.loopexit.split-lp.loopexit.split-lp ]
  tail call void @_ZNSt7__cxx1112basic_stringIcSt11char_traitsIcESaIcEED1Ev(ptr noundef nonnull align 8 dereferenceable(32) %agg.result) #20
  resume { ptr, i32 } %lpad.phi

for.end:                                          ; preds = %for.inc
  %call10 = invoke noundef nonnull align 8 dereferenceable(32) ptr @_ZNSt7__cxx1112basic_stringIcSt11char_traitsIcESaIcEEpLEc(ptr noundef nonnull align 8 dereferenceable(32) %agg.result, i8 noundef signext 32)
          to label %invoke.cont9 unwind label %lpad.loopexit.split-lp.loopexit

invoke.cont9:                                     ; preds = %for.end
  %3 = load i8, ptr %arrayidx, align 1
  %conv12 = zext i8 %3 to i32
  %call13 = tail call i32 @isprint(i32 noundef %conv12) #21
  %tobool14.not = icmp eq i32 %call13, 0
  %spec.select = select i1 %tobool14.not, i8 32, i8 %3
  %call20 = invoke noundef nonnull align 8 dereferenceable(32) ptr @_ZNSt7__cxx1112basic_stringIcSt11char_traitsIcESaIcEEpLEc(ptr noundef nonnull align 8 dereferenceable(32) %agg.result, i8 noundef signext %spec.select)
          to label %invoke.cont19 unwind label %lpad.loopexit.split-lp.loopexit

invoke.cont19:                                    ; preds = %invoke.cont9
  %add = add nuw i64 %i.018, 1
  %rem = and i64 %add, 7
  %cmp22 = icmp eq i64 %rem, 0
  %. = select i1 %cmp22, i8 10, i8 32
  %4 = invoke noundef nonnull align 8 dereferenceable(32) ptr @_ZNSt7__cxx1112basic_stringIcSt11char_traitsIcESaIcEEpLEc(ptr noundef nonnull align 8 dereferenceable(32) %agg.result, i8 noundef signext %.)
          to label %for.inc27 unwind label %lpad.loopexit.split-lp.loopexit

for.inc27:                                        ; preds = %invoke.cont19
  %5 = load i64, ptr %buf, align 8
  %cmp = icmp ult i64 %add, %5
  br i1 %cmp, label %for.cond4.preheader, label %for.end28, !llvm.loop !13

for.end28:                                        ; preds = %for.inc27, %entry
  %call30 = invoke noundef nonnull align 8 dereferenceable(32) ptr @_ZNSt7__cxx1112basic_stringIcSt11char_traitsIcESaIcEEpLEc(ptr noundef nonnull align 8 dereferenceable(32) %agg.result, i8 noundef signext 10)
          to label %nrvo.skipdtor unwind label %lpad.loopexit.split-lp.loopexit.split-lp

nrvo.skipdtor:                                    ; preds = %for.end28
  ret void
}